target datalayout = "e-m:e-p270:32:32-p271:32:32-p272:64:64-i64:64-i128:128-f80:128-n8:16:32:64-S128"
target triple = "x86_64-pc-linux-gnu"

%struct.H5VL_connector_t = type { ptr, i64, ptr, ptr }
%struct.H5VL_object_t = type { ptr, ptr, i64 }

@.str = private unnamed_addr constant [106 x i8] c"generated/home/dtcxzyw/WorkSpace/Projects/compilers/llvm-opt-benchmark/bench/hdf5/hdf5/src/H5VLcallback.c\00", align 1
@H5E_CANTSET_g = external global i64, align 8
@H5E_VOL_g = external global i64, align 8
@H5VL_init_g = external global i8, align 1
@H5_libterm_g = external global i8, align 1
@H5E_FUNC_g = external global i64, align 8
@H5E_CANTINIT_g = external global i64, align 8
@.str.5 = private unnamed_addr constant [32 x i8] c"interface initialization failed\00", align 1
@H5E_CANTGET_g = external global i64, align 8
@.str.24 = private unnamed_addr constant [27 x i8] c"can't set VOL wrapper info\00", align 1
@H5E_CANTRESET_g = external global i64, align 8
@.str.26 = private unnamed_addr constant [29 x i8] c"can't reset VOL wrapper info\00", align 1
@__func__.H5VL_introspect_get_conn_cls = private unnamed_addr constant [29 x i8] c"H5VL_introspect_get_conn_cls\00", align 1
@.str.136 = private unnamed_addr constant [28 x i8] c"can't query connector class\00", align 1

; Function Attrs: nounwind uwtable
define i32 @H5VL_introspect_get_conn_cls(ptr noundef %0, i32 noundef %1, ptr noundef %2) #0 {
  %4 = alloca ptr, align 8
  %5 = alloca i32, align 4
  %6 = alloca ptr, align 8
  %7 = alloca i8, align 1
  %8 = alloca i32, align 4
  %9 = alloca i8, align 1
  store ptr %0, ptr %4, align 8, !tbaa !58
  store i32 %1, ptr %5, align 4, !tbaa !7
  store ptr %2, ptr %6, align 8, !tbaa !166
  call void @llvm.lifetime.start.p0(i64 1, ptr %7) #8
  store i8 0, ptr %7, align 1, !tbaa !9
  call void @llvm.lifetime.start.p0(i64 4, ptr %8) #8
  store i32 0, ptr %8, align 4, !tbaa !7
  call void @llvm.lifetime.start.p0(i64 1, ptr %9) #8
  store i8 0, ptr %9, align 1, !tbaa !9
  %10 = load i8, ptr @H5VL_init_g, align 1, !tbaa !9, !range !14, !noundef !15
  %11 = trunc i8 %10 to i1
  br i1 %11, label %16, label %12

12:                                               ; preds = %3
  %13 = load i8, ptr @H5_libterm_g, align 1, !tbaa !9, !range !14, !noundef !15
  %14 = trunc i8 %13 to i1
  %15 = xor i1 %14, true
  br label %16

16:                                               ; preds = %12, %3
  %17 = phi i1 [ false, %3 ], [ %15, %12 ]
  %18 = xor i1 %17, true
  %19 = xor i1 %18, true
  %20 = zext i1 %19 to i32
  %21 = sext i32 %20 to i64
  %22 = call i64 @llvm.expect.i64(i64 %21, i64 0)
  %23 = icmp ne i64 %22, 0
  br i1 %23, label %24, label %47

24:                                               ; preds = %16
  store i8 1, ptr @H5VL_init_g, align 1, !tbaa !9
  %25 = call i32 @H5VL__init_package()
  %26 = icmp slt i32 %25, 0
  br i1 %26, label %27, label %46

27:                                               ; preds = %24
  store i8 0, ptr @H5VL_init_g, align 1, !tbaa !9
  br label %28

28:                                               ; preds = %27
  br label %29

29:                                               ; preds = %28
  br label %30

30:                                               ; preds = %29
  %31 = load i64, ptr @H5E_FUNC_g, align 8, !tbaa !3
  %32 = load i64, ptr @H5E_CANTINIT_g, align 8, !tbaa !3
  %33 = call i32 (ptr, ptr, i32, i64, i64, ptr, ...) @H5E_printf_stack(ptr noundef @.str, ptr noundef @__func__.H5VL_introspect_get_conn_cls, i32 noundef 6466, i64 noundef %31, i64 noundef %32, ptr noundef @.str.5)
  br label %34

34:                                               ; preds = %30
  br label %35

35:                                               ; preds = %34
  store i8 1, ptr %9, align 1, !tbaa !9
  %36 = load i8, ptr %9, align 1, !tbaa !9, !range !14, !noundef !15
  %37 = trunc i8 %36 to i1
  %38 = zext i1 %37 to i8
  store i8 %38, ptr %9, align 1, !tbaa !9
  br label %39

39:                                               ; preds = %35
  br label %40

40:                                               ; preds = %39
  br label %41

41:                                               ; preds = %40
  store i32 -1, ptr %8, align 4, !tbaa !7
  br label %118

42:                                               ; No predecessors!
  br label %43

43:                                               ; preds = %42
  br label %44

44:                                               ; preds = %43
  br label %45

45:                                               ; preds = %44
  br label %46

46:                                               ; preds = %45, %24
  br label %47

47:                                               ; preds = %46, %16
  %48 = load i8, ptr @H5VL_init_g, align 1, !tbaa !9, !range !14, !noundef !15
  %49 = trunc i8 %48 to i1
  br i1 %49, label %54, label %50

50:                                               ; preds = %47
  %51 = load i8, ptr @H5_libterm_g, align 1, !tbaa !9, !range !14, !noundef !15
  %52 = trunc i8 %51 to i1
  %53 = xor i1 %52, true
  br label %54

54:                                               ; preds = %50, %47
  %55 = phi i1 [ true, %47 ], [ %53, %50 ]
  %56 = xor i1 %55, true
  %57 = xor i1 %56, true
  %58 = zext i1 %57 to i32
  %59 = sext i32 %58 to i64
  %60 = call i64 @llvm.expect.i64(i64 %59, i64 1)
  %61 = icmp ne i64 %60, 0
  br i1 %61, label %62, label %141

62:                                               ; preds = %54
  %63 = load ptr, ptr %4, align 8, !tbaa !58
  %64 = call i32 @H5VL_set_vol_wrapper(ptr noundef %63)
  %65 = icmp slt i32 %64, 0
  br i1 %65, label %66, label %85

66:                                               ; preds = %62
  br label %67

67:                                               ; preds = %66
  br label %68

68:                                               ; preds = %67
  br label %69

69:                                               ; preds = %68
  %70 = load i64, ptr @H5E_VOL_g, align 8, !tbaa !3
  %71 = load i64, ptr @H5E_CANTSET_g, align 8, !tbaa !3
  %72 = call i32 (ptr, ptr, i32, i64, i64, ptr, ...) @H5E_printf_stack(ptr noundef @.str, ptr noundef @__func__.H5VL_introspect_get_conn_cls, i32 noundef 6470, i64 noundef %70, i64 noundef %71, ptr noundef @.str.24)
  br label %73

73:                                               ; preds = %69
  br label %74

74:                                               ; preds = %73
  store i8 1, ptr %9, align 1, !tbaa !9
  %75 = load i8, ptr %9, align 1, !tbaa !9, !range !14, !noundef !15
  %76 = trunc i8 %75 to i1
  %77 = zext i1 %76 to i8
  store i8 %77, ptr %9, align 1, !tbaa !9
  br label %78

78:                                               ; preds = %74
  br label %79

79:                                               ; preds = %78
  br label %80

80:                                               ; preds = %79
  store i32 -1, ptr %8, align 4, !tbaa !7
  br label %118

81:                                               ; No predecessors!
  br label %82

82:                                               ; preds = %81
  br label %83

83:                                               ; preds = %82
  br label %84

84:                                               ; preds = %83
  br label %85

85:                                               ; preds = %84, %62
  store i8 1, ptr %7, align 1, !tbaa !9
  %86 = load ptr, ptr %4, align 8, !tbaa !58
  %87 = getelementptr inbounds nuw %struct.H5VL_object_t, ptr %86, i32 0, i32 0
  %88 = load ptr, ptr %87, align 8, !tbaa !62
  %89 = load ptr, ptr %4, align 8, !tbaa !58
  %90 = getelementptr inbounds nuw %struct.H5VL_object_t, ptr %89, i32 0, i32 1
  %91 = load ptr, ptr %90, align 8, !tbaa !64
  %92 = getelementptr inbounds nuw %struct.H5VL_connector_t, ptr %91, i32 0, i32 0
  %93 = load ptr, ptr %92, align 8, !tbaa !16
  %94 = load i32, ptr %5, align 4, !tbaa !7
  %95 = load ptr, ptr %6, align 8, !tbaa !166
  %96 = call i32 @H5VL__introspect_get_conn_cls(ptr noundef %88, ptr noundef %93, i32 noundef %94, ptr noundef %95)
  %97 = icmp slt i32 %96, 0
  br i1 %97, label %98, label %117

98:                                               ; preds = %85
  br label %99

99:                                               ; preds = %98
  br label %100

100:                                              ; preds = %99
  br label %101

101:                                              ; preds = %100
  %102 = load i64, ptr @H5E_VOL_g, align 8, !tbaa !3
  %103 = load i64, ptr @H5E_CANTGET_g, align 8, !tbaa !3
  %104 = call i32 (ptr, ptr, i32, i64, i64, ptr, ...) @H5E_printf_stack(ptr noundef @.str, ptr noundef @__func__.H5VL_introspect_get_conn_cls, i32 noundef 6475, i64 noundef %102, i64 noundef %103, ptr noundef @.str.136)
  br label %105

105:                                              ; preds = %101
  br label %106

106:                                              ; preds = %105
  store i8 1, ptr %9, align 1, !tbaa !9
  %107 = load i8, ptr %9, align 1, !tbaa !9, !range !14, !noundef !15
  %108 = trunc i8 %107 to i1
  %109 = zext i1 %108 to i8
  store i8 %109, ptr %9, align 1, !tbaa !9
  br label %110

110:                                              ; preds = %106
  br label %111

111:                                              ; preds = %110
  br label %112

112:                                              ; preds = %111
  store i32 -1, ptr %8, align 4, !tbaa !7
  br label %118

113:                                              ; No predecessors!
  br label %114

114:                                              ; preds = %113
  br label %115

115:                                              ; preds = %114
  br label %116

116:                                              ; preds = %115
  br label %117

117:                                              ; preds = %116, %85
  br label %118

118:                                              ; preds = %117, %112, %80, %41
  %119 = load i8, ptr %7, align 1, !tbaa !9, !range !14, !noundef !15
  %120 = trunc i8 %119 to i1
  br i1 %120, label %121, label %140

121:                                              ; preds = %118
  %122 = call i32 @H5VL_reset_vol_wrapper()
  %123 = icmp slt i32 %122, 0
  br i1 %123, label %124, label %140

124:                                              ; preds = %121
  br label %125

125:                                              ; preds = %124
  br label %126

126:                                              ; preds = %125
  br label %127

127:                                              ; preds = %126
  %128 = load i64, ptr @H5E_VOL_g, align 8, !tbaa !3
  %129 = load i64, ptr @H5E_CANTRESET_g, align 8, !tbaa !3
  %130 = call i32 (ptr, ptr, i32, i64, i64, ptr, ...) @H5E_printf_stack(ptr noundef @.str, ptr noundef @__func__.H5VL_introspect_get_conn_cls, i32 noundef 6480, i64 noundef %128, i64 noundef %129, ptr noundef @.str.26)
  br label %131

131:                                              ; preds = %127
  br label %132

132:                                              ; preds = %131
  store i8 1, ptr %9, align 1, !tbaa !9
  %133 = load i8, ptr %9, align 1, !tbaa !9, !range !14, !noundef !15
  %134 = trunc i8 %133 to i1
  %135 = zext i1 %134 to i8
  store i8 %135, ptr %9, align 1, !tbaa !9
  br label %136

136:                                              ; preds = %132
  br label %137

137:                                              ; preds = %136
  store i32 -1, ptr %8, align 4, !tbaa !7
  br label %138

138:                                              ; preds = %137
  br label %139

139:                                              ; preds = %138
  br label %140

140:                                              ; preds = %139, %121, %118
  br label %141

141:                                              ; preds = %140, %54
  %142 = load i32, ptr %8, align 4, !tbaa !7
  call void @llvm.lifetime.end.p0(i64 1, ptr %9) #8
  call void @llvm.lifetime.end.p0(i64 4, ptr %8) #8
  call void @llvm.lifetime.end.p0(i64 1, ptr %7) #8
  ret i32 %142
}