; Function Attrs: nounwind uwtable
define range(i32 -1, 1) i32 @H5VL_introspect_get_conn_cls(ptr noundef %0, i32 noundef %1, ptr noundef %2) local_unnamed_addr #0 {
  %4 = load i8, ptr @H5VL_init_g, align 1, !tbaa !33, !range !35, !noundef !36
  %5 = trunc nuw i8 %4 to i1
  %6 = load i8, ptr @H5_libterm_g, align 1, !range !35
  %7 = trunc nuw i8 %6 to i1
  %8 = select i1 %5, i1 true, i1 %7
  br i1 %8, label %16, label %9, !prof !37

9:                                                ; preds = %3
  store i8 1, ptr @H5VL_init_g, align 1, !tbaa !33
  %10 = tail call i32 @H5VL__init_package() #7
  %11 = icmp slt i32 %10, 0
  br i1 %11, label %12, label %._crit_edge

._crit_edge:                                      ; preds = %9
  %.pre = load i8, ptr @H5VL_init_g, align 1, !tbaa !33, !range !35
  %.pre14 = load i8, ptr @H5_libterm_g, align 1, !range !35
  %.pre15 = trunc nuw i8 %.pre to i1
  %.pre16 = trunc nuw i8 %.pre14 to i1
  br label %16

12:                                               ; preds = %9
  store i8 0, ptr @H5VL_init_g, align 1, !tbaa !33
  %13 = load i64, ptr @H5E_FUNC_g, align 8, !tbaa !3
  %14 = load i64, ptr @H5E_CANTINIT_g, align 8, !tbaa !3
  %15 = tail call i32 (ptr, ptr, i32, i64, i64, ptr, ...) @H5E_printf_stack(ptr noundef nonnull @.str, ptr noundef nonnull @__func__.H5VL_introspect_get_conn_cls, i32 noundef 6466, i64 noundef %13, i64 noundef %14, ptr noundef nonnull @.str.5) #7
  br label %44

16:                                               ; preds = %._crit_edge, %3
  %.pre-phi17 = phi i1 [ %.pre16, %._crit_edge ], [ %7, %3 ]
  %.pre-phi = phi i1 [ %.pre15, %._crit_edge ], [ %5, %3 ]
  %17 = xor i1 %.pre-phi17, true
  %18 = select i1 %.pre-phi, i1 true, i1 %17
  br i1 %18, label %19, label %44, !prof !37

19:                                               ; preds = %16
  %20 = tail call i32 @H5VL_set_vol_wrapper(ptr noundef %0) #7
  %21 = icmp slt i32 %20, 0
  br i1 %21, label %22, label %26

22:                                               ; preds = %19
  %23 = load i64, ptr @H5E_VOL_g, align 8, !tbaa !3
  %24 = load i64, ptr @H5E_CANTSET_g, align 8, !tbaa !3
  %25 = tail call i32 (ptr, ptr, i32, i64, i64, ptr, ...) @H5E_printf_stack(ptr noundef nonnull @.str, ptr noundef nonnull @__func__.H5VL_introspect_get_conn_cls, i32 noundef 6470, i64 noundef %23, i64 noundef %24, ptr noundef nonnull @.str.24) #7
  br label %44

26:                                               ; preds = %19
  %27 = load ptr, ptr %0, align 8, !tbaa !55
  %28 = getelementptr inbounds nuw i8, ptr %0, i64 8
  %29 = load ptr, ptr %28, align 8, !tbaa !57
  %30 = load ptr, ptr %29, align 8, !tbaa !7
  %31 = tail call fastcc i32 @H5VL__introspect_get_conn_cls(ptr noundef %27, ptr noundef %30, i32 noundef %1, ptr noundef %2)
  %32 = icmp slt i32 %31, 0
  br i1 %32, label %33, label %37

33:                                               ; preds = %26
  %34 = load i64, ptr @H5E_VOL_g, align 8, !tbaa !3
  %35 = load i64, ptr @H5E_CANTGET_g, align 8, !tbaa !3
  %36 = tail call i32 (ptr, ptr, i32, i64, i64, ptr, ...) @H5E_printf_stack(ptr noundef nonnull @.str, ptr noundef nonnull @__func__.H5VL_introspect_get_conn_cls, i32 noundef 6475, i64 noundef %34, i64 noundef %35, ptr noundef nonnull @.str.136) #7
  br label %37

37:                                               ; preds = %33, %26
  %.0.ph = phi i32 [ 0, %26 ], [ -1, %33 ]
  %38 = tail call i32 @H5VL_reset_vol_wrapper() #7
  %39 = icmp slt i32 %38, 0
  br i1 %39, label %40, label %44

40:                                               ; preds = %37
  %41 = load i64, ptr @H5E_VOL_g, align 8, !tbaa !3
  %42 = load i64, ptr @H5E_CANTRESET_g, align 8, !tbaa !3
  %43 = tail call i32 (ptr, ptr, i32, i64, i64, ptr, ...) @H5E_printf_stack(ptr noundef nonnull @.str, ptr noundef nonnull @__func__.H5VL_introspect_get_conn_cls, i32 noundef 6480, i64 noundef %41, i64 noundef %42, ptr noundef nonnull @.str.26) #7
  br label %44

44:                                               ; preds = %12, %22, %37, %40, %16
  %.1 = phi i32 [ -1, %40 ], [ %.0.ph, %37 ], [ 0, %16 ], [ -1, %12 ], [ -1, %22 ]
  ret i32 %.1
}